; Function Attrs: nounwind uwtable
define internal fastcc i32 @ftp_state_rest_resp(ptr noundef %0, ptr noundef %1, i32 noundef %2, i8 noundef zeroext %3) unnamed_addr #0 {
  %5 = alloca [24 x i8], align 16
  %6 = getelementptr inbounds nuw i8, ptr %1, i64 1088
  %cond1 = icmp eq i8 %3, 27
  %.not21 = icmp eq i32 %2, 350
  br i1 %cond1, label %20, label %7

7:                                                ; preds = %4
  br i1 %.not21, label %8, label %18

8:                                                ; preds = %7
  call void @llvm.lifetime.start.p0(i64 24, ptr nonnull %5) #10
  call void @llvm.memcpy.p0.p0.i64(ptr noundef nonnull align 16 dereferenceable(24) %5, ptr noundef nonnull align 16 dereferenceable(24) @__const.ftp_state_rest_resp.buffer, i64 24, i1 false)
  %9 = call i64 @strlen(ptr noundef nonnull dereferenceable(1) %5) #11
  %10 = getelementptr inbounds nuw i8, ptr %0, i64 2658
  %11 = load i64, ptr %10, align 2
  %12 = or i64 %11, 134217728
  store i64 %12, ptr %10, align 2
  %13 = call i32 @Curl_client_write(ptr noundef %0, i32 noundef 4, ptr noundef nonnull %5, i64 noundef %9) #10
  %14 = and i64 %11, 134217728
  %15 = load i64, ptr %10, align 2
  %16 = and i64 %15, -134217729
  %17 = or disjoint i64 %16, %14
  store i64 %17, ptr %10, align 2
  %.not = icmp eq i32 %13, 0
  call void @llvm.lifetime.end.p0(i64 24, ptr nonnull %5) #10
  br i1 %.not, label %18, label %51

18:                                               ; preds = %8, %7
  %19 = call fastcc i32 @ftp_state_prepare_transfer(ptr noundef %0)
  br label %51

20:                                               ; preds = %4
  br i1 %.not21, label %22, label %21

21:                                               ; preds = %20
  tail call void (ptr, ptr, ...) @Curl_failf(ptr noundef %0, ptr noundef nonnull @.str.120) #10
  br label %51

22:                                               ; preds = %20
  %23 = getelementptr inbounds nuw i8, ptr %1, i64 1272
  %24 = load ptr, ptr %23, align 8, !tbaa !143
  %25 = tail call i32 (ptr, ptr, ptr, ...) @Curl_pp_sendf(ptr noundef %0, ptr noundef nonnull %6, ptr noundef nonnull @.str.72, ptr noundef %24) #10
  %.not22 = icmp eq i32 %25, 0
  br i1 %.not22, label %26, label %51

26:                                               ; preds = %22
  %27 = getelementptr inbounds nuw i8, ptr %0, i64 24
  %28 = load ptr, ptr %27, align 8, !tbaa !105
  %29 = getelementptr inbounds nuw i8, ptr %28, i64 1358
  %30 = load i8, ptr %29, align 2, !tbaa !136
  %31 = icmp ne i8 %30, 32
  %32 = icmp ne ptr %0, null
  %or.cond4.i = and i1 %32, %31
  br i1 %or.cond4.i, label %33, label %_ftp_state.exit

33:                                               ; preds = %26
  %34 = getelementptr inbounds nuw i8, ptr %0, i64 2658
  %35 = load i64, ptr %34, align 2
  %36 = and i64 %35, 2147483648
  %.not.i = icmp eq i64 %36, 0
  br i1 %.not.i, label %_ftp_state.exit, label %37

37:                                               ; preds = %33
  %38 = getelementptr inbounds nuw i8, ptr %0, i64 4864
  %39 = load ptr, ptr %38, align 8, !tbaa !102
  %.not20.i = icmp eq ptr %39, null
  br i1 %.not20.i, label %46, label %40

40:                                               ; preds = %37
  %41 = getelementptr inbounds nuw i8, ptr %39, i64 8
  %42 = load i32, ptr %41, align 8, !tbaa !103
  %43 = icmp sgt i32 %42, 0
  %44 = load i32, ptr getelementptr inbounds nuw (i8, ptr @Curl_trc_feat_ftp, i64 8), align 8
  %45 = icmp sgt i32 %44, 0
  %or.cond.i = select i1 %43, i1 %45, i1 false
  br i1 %or.cond.i, label %47, label %_ftp_state.exit

46:                                               ; preds = %37
  %.old.i = load i32, ptr getelementptr inbounds nuw (i8, ptr @Curl_trc_feat_ftp, i64 8), align 8, !tbaa !103
  %.old1.i = icmp sgt i32 %.old.i, 0
  br i1 %.old1.i, label %47, label %_ftp_state.exit

47:                                               ; preds = %46, %40
  %48 = zext i8 %30 to i64
  %49 = getelementptr inbounds nuw [35 x ptr], ptr @ftp_state_names, i64 0, i64 %48
  %50 = load ptr, ptr %49, align 8, !tbaa !7
  tail call void (ptr, ptr, ...) @Curl_trc_ftp(ptr noundef nonnull %0, ptr noundef nonnull @.str.7, ptr noundef %50, ptr noundef nonnull @.str.41) #10
  br label %_ftp_state.exit

_ftp_state.exit:                                  ; preds = %26, %33, %40, %46, %47
  store i8 32, ptr %29, align 2, !tbaa !136
  br label %51

51:                                               ; preds = %18, %22, %_ftp_state.exit, %21, %8
  %.1 = phi i32 [ %13, %8 ], [ 31, %21 ], [ %25, %22 ], [ 0, %_ftp_state.exit ], [ %19, %18 ]
  ret i32 %.1
}